; ModuleID = '39/2034.c'
source_filename = "39/2034.c"
target datalayout = "e-m:e-p270:32:32-p271:32:32-p272:64:64-i64:64-f80:128-n8:16:32:64-S128"
target triple = "x86_64-pc-linux-gnu"

%struct.student = type { [20 x i8], i32, i32, i8, i8, i32 }

@.str = private unnamed_addr constant [4 x i8] c"%d\0A\00", align 1
@.str.1 = private unnamed_addr constant [3 x i8] c"%s\00", align 1
@.str.2 = private unnamed_addr constant [13 x i8] c"%d%d %c %c%d\00", align 1
@.str.3 = private unnamed_addr constant [10 x i8] c"%s\0A%d\0A%ld\00", align 1

; Function Attrs: noinline nounwind uwtable
define dso_local i32 @main() #0 {
  %1 = alloca i32, align 4
  %2 = alloca [100 x %struct.student], align 16
  %3 = alloca i32, align 4
  %4 = alloca i32, align 4
  %5 = alloca i32, align 4
  %6 = alloca i64, align 8
  %7 = alloca [100 x i64], align 16
  %8 = alloca i64, align 8
  store i32 0, i32* %1, align 4
  %9 = call i32 (i8*, ...) @__isoc99_scanf(i8* getelementptr inbounds ([4 x i8], [4 x i8]* @.str, i64 0, i64 0), i32* %3)
  store i32 0, i32* %4, align 4
  br label %10

10:                                               ; preds = %42, %0
  %11 = load i32, i32* %4, align 4
  %12 = load i32, i32* %3, align 4
  %13 = sub nsw i32 %12, 1
  %14 = icmp sle i32 %11, %13
  br i1 %14, label %15, label %45

15:                                               ; preds = %10
  %16 = load i32, i32* %4, align 4
  %17 = sext i32 %16 to i64
  %18 = getelementptr inbounds [100 x %struct.student], [100 x %struct.student]* %2, i64 0, i64 %17
  %19 = getelementptr inbounds %struct.student, %struct.student* %18, i32 0, i32 0
  %20 = call i32 (i8*, ...) @__isoc99_scanf(i8* getelementptr inbounds ([3 x i8], [3 x i8]* @.str.1, i64 0, i64 0), [20 x i8]* %19)
  %21 = load i32, i32* %4, align 4
  %22 = sext i32 %21 to i64
  %23 = getelementptr inbounds [100 x %struct.student], [100 x %struct.student]* %2, i64 0, i64 %22
  %24 = getelementptr inbounds %struct.student, %struct.student* %23, i32 0, i32 1
  %25 = load i32, i32* %4, align 4
  %26 = sext i32 %25 to i64
  %27 = getelementptr inbounds [100 x %struct.student], [100 x %struct.student]* %2, i64 0, i64 %26
  %28 = getelementptr inbounds %struct.student, %struct.student* %27, i32 0, i32 2
  %29 = load i32, i32* %4, align 4
  %30 = sext i32 %29 to i64
  %31 = getelementptr inbounds [100 x %struct.student], [100 x %struct.student]* %2, i64 0, i64 %30
  %32 = getelementptr inbounds %struct.student, %struct.student* %31, i32 0, i32 3
  %33 = load i32, i32* %4, align 4
  %34 = sext i32 %33 to i64
  %35 = getelementptr inbounds [100 x %struct.student], [100 x %struct.student]* %2, i64 0, i64 %34
  %36 = getelementptr inbounds %struct.student, %struct.student* %35, i32 0, i32 4
  %37 = load i32, i32* %4, align 4
  %38 = sext i32 %37 to i64
  %39 = getelementptr inbounds [100 x %struct.student], [100 x %struct.student]* %2, i64 0, i64 %38
  %40 = getelementptr inbounds %struct.student, %struct.student* %39, i32 0, i32 5
  %41 = call i32 (i8*, ...) @__isoc99_scanf(i8* getelementptr inbounds ([13 x i8], [13 x i8]* @.str.2, i64 0, i64 0), i32* %24, i32* %28, i8* %32, i8* %36, i32* %40)
  br label %42

42:                                               ; preds = %15
  %43 = load i32, i32* %4, align 4
  %44 = add nsw i32 %43, 1
  store i32 %44, i32* %4, align 4
  br label %10

45:                                               ; preds = %10
  store i32 0, i32* %4, align 4
  br label %46

46:                                               ; preds = %165, %45
  %47 = load i32, i32* %4, align 4
  %48 = load i32, i32* %3, align 4
  %49 = sub nsw i32 %48, 1
  %50 = icmp sle i32 %47, %49
  br i1 %50, label %51, label %168

51:                                               ; preds = %46
  %52 = load i32, i32* %4, align 4
  %53 = sext i32 %52 to i64
  %54 = getelementptr inbounds [100 x i64], [100 x i64]* %7, i64 0, i64 %53
  store i64 0, i64* %54, align 8
  %55 = load i32, i32* %4, align 4
  %56 = sext i32 %55 to i64
  %57 = getelementptr inbounds [100 x %struct.student], [100 x %struct.student]* %2, i64 0, i64 %56
  %58 = getelementptr inbounds %struct.student, %struct.student* %57, i32 0, i32 1
  %59 = load i32, i32* %58, align 4
  %60 = icmp sgt i32 %59, 80
  br i1 %60, label %61, label %77

61:                                               ; preds = %51
  %62 = load i32, i32* %4, align 4
  %63 = sext i32 %62 to i64
  %64 = getelementptr inbounds [100 x %struct.student], [100 x %struct.student]* %2, i64 0, i64 %63
  %65 = getelementptr inbounds %struct.student, %struct.student* %64, i32 0, i32 5
  %66 = load i32, i32* %65, align 4
  %67 = icmp sge i32 %66, 1
  br i1 %67, label %68, label %77

68:                                               ; preds = %61
  %69 = load i32, i32* %4, align 4
  %70 = sext i32 %69 to i64
  %71 = getelementptr inbounds [100 x i64], [100 x i64]* %7, i64 0, i64 %70
  %72 = load i64, i64* %71, align 8
  %73 = add nsw i64 %72, 8000
  %74 = load i32, i32* %4, align 4
  %75 = sext i32 %74 to i64
  %76 = getelementptr inbounds [100 x i64], [100 x i64]* %7, i64 0, i64 %75
  store i64 %73, i64* %76, align 8
  br label %77

77:                                               ; preds = %68, %61, %51
  %78 = load i32, i32* %4, align 4
  %79 = sext i32 %78 to i64
  %80 = getelementptr inbounds [100 x %struct.student], [100 x %struct.student]* %2, i64 0, i64 %79
  %81 = getelementptr inbounds %struct.student, %struct.student* %80, i32 0, i32 1
  %82 = load i32, i32* %81, align 4
  %83 = icmp sgt i32 %82, 85
  br i1 %83, label %84, label %100

84:                                               ; preds = %77
  %85 = load i32, i32* %4, align 4
  %86 = sext i32 %85 to i64
  %87 = getelementptr inbounds [100 x %struct.student], [100 x %struct.student]* %2, i64 0, i64 %86
  %88 = getelementptr inbounds %struct.student, %struct.student* %87, i32 0, i32 2
  %89 = load i32, i32* %88, align 4
  %90 = icmp sgt i32 %89, 80
  br i1 %90, label %91, label %100

91:                                               ; preds = %84
  %92 = load i32, i32* %4, align 4
  %93 = sext i32 %92 to i64
  %94 = getelementptr inbounds [100 x i64], [100 x i64]* %7, i64 0, i64 %93
  %95 = load i64, i64* %94, align 8
  %96 = add nsw i64 %95, 4000
  %97 = load i32, i32* %4, align 4
  %98 = sext i32 %97 to i64
  %99 = getelementptr inbounds [100 x i64], [100 x i64]* %7, i64 0, i64 %98
  store i64 %96, i64* %99, align 8
  br label %100

100:                                              ; preds = %91, %84, %77
  %101 = load i32, i32* %4, align 4
  %102 = sext i32 %101 to i64
  %103 = getelementptr inbounds [100 x %struct.student], [100 x %struct.student]* %2, i64 0, i64 %102
  %104 = getelementptr inbounds %struct.student, %struct.student* %103, i32 0, i32 1
  %105 = load i32, i32* %104, align 4
  %106 = icmp sgt i32 %105, 90
  br i1 %106, label %107, label %116

107:                                              ; preds = %100
  %108 = load i32, i32* %4, align 4
  %109 = sext i32 %108 to i64
  %110 = getelementptr inbounds [100 x i64], [100 x i64]* %7, i64 0, i64 %109
  %111 = load i64, i64* %110, align 8
  %112 = add nsw i64 %111, 2000
  %113 = load i32, i32* %4, align 4
  %114 = sext i32 %113 to i64
  %115 = getelementptr inbounds [100 x i64], [100 x i64]* %7, i64 0, i64 %114
  store i64 %112, i64* %115, align 8
  br label %116

116:                                              ; preds = %107, %100
  %117 = load i32, i32* %4, align 4
  %118 = sext i32 %117 to i64
  %119 = getelementptr inbounds [100 x %struct.student], [100 x %struct.student]* %2, i64 0, i64 %118
  %120 = getelementptr inbounds %struct.student, %struct.student* %119, i32 0, i32 4
  %121 = load i8, i8* %120, align 1
  %122 = sext i8 %121 to i32
  %123 = icmp eq i32 %122, 89
  br i1 %123, label %124, label %140

124:                                              ; preds = %116
  %125 = load i32, i32* %4, align 4
  %126 = sext i32 %125 to i64
  %127 = getelementptr inbounds [100 x %struct.student], [100 x %struct.student]* %2, i64 0, i64 %126
  %128 = getelementptr inbounds %struct.student, %struct.student* %127, i32 0, i32 1
  %129 = load i32, i32* %128, align 4
  %130 = icmp sgt i32 %129, 85
  br i1 %130, label %131, label %140

131:                                              ; preds = %124
  %132 = load i32, i32* %4, align 4
  %133 = sext i32 %132 to i64
  %134 = getelementptr inbounds [100 x i64], [100 x i64]* %7, i64 0, i64 %133
  %135 = load i64, i64* %134, align 8
  %136 = add nsw i64 %135, 1000
  %137 = load i32, i32* %4, align 4
  %138 = sext i32 %137 to i64
  %139 = getelementptr inbounds [100 x i64], [100 x i64]* %7, i64 0, i64 %138
  store i64 %136, i64* %139, align 8
  br label %140

140:                                              ; preds = %131, %124, %116
  %141 = load i32, i32* %4, align 4
  %142 = sext i32 %141 to i64
  %143 = getelementptr inbounds [100 x %struct.student], [100 x %struct.student]* %2, i64 0, i64 %142
  %144 = getelementptr inbounds %struct.student, %struct.student* %143, i32 0, i32 3
  %145 = load i8, i8* %144, align 4
  %146 = sext i8 %145 to i32
  %147 = icmp eq i32 %146, 89
  br i1 %147, label %148, label %164

148:                                              ; preds = %140
  %149 = load i32, i32* %4, align 4
  %150 = sext i32 %149 to i64
  %151 = getelementptr inbounds [100 x %struct.student], [100 x %struct.student]* %2, i64 0, i64 %150
  %152 = getelementptr inbounds %struct.student, %struct.student* %151, i32 0, i32 2
  %153 = load i32, i32* %152, align 4
  %154 = icmp sgt i32 %153, 80
  br i1 %154, label %155, label %164

155:                                              ; preds = %148
  %156 = load i32, i32* %4, align 4
  %157 = sext i32 %156 to i64
  %158 = getelementptr inbounds [100 x i64], [100 x i64]* %7, i64 0, i64 %157
  %159 = load i64, i64* %158, align 8
  %160 = add nsw i64 %159, 850
  %161 = load i32, i32* %4, align 4
  %162 = sext i32 %161 to i64
  %163 = getelementptr inbounds [100 x i64], [100 x i64]* %7, i64 0, i64 %162
  store i64 %160, i64* %163, align 8
  br label %164

164:                                              ; preds = %155, %148, %140
  br label %165

165:                                              ; preds = %164
  %166 = load i32, i32* %4, align 4
  %167 = add nsw i32 %166, 1
  store i32 %167, i32* %4, align 4
  br label %46

168:                                              ; preds = %46
  %169 = getelementptr inbounds [100 x i64], [100 x i64]* %7, i64 0, i64 0
  %170 = load i64, i64* %169, align 16
  store i64 %170, i64* %8, align 8
  store i32 0, i32* %5, align 4
  store i64 0, i64* %6, align 8
  store i32 0, i32* %4, align 4
  br label %171

171:                                              ; preds = %196, %168
  %172 = load i32, i32* %4, align 4
  %173 = load i32, i32* %3, align 4
  %174 = sub nsw i32 %173, 1
  %175 = icmp sle i32 %172, %174
  br i1 %175, label %176, label %199

176:                                              ; preds = %171
  %177 = load i64, i64* %6, align 8
  %178 = load i32, i32* %4, align 4
  %179 = sext i32 %178 to i64
  %180 = getelementptr inbounds [100 x i64], [100 x i64]* %7, i64 0, i64 %179
  %181 = load i64, i64* %180, align 8
  %182 = add nsw i64 %177, %181
  store i64 %182, i64* %6, align 8
  %183 = load i64, i64* %8, align 8
  %184 = load i32, i32* %4, align 4
  %185 = sext i32 %184 to i64
  %186 = getelementptr inbounds [100 x i64], [100 x i64]* %7, i64 0, i64 %185
  %187 = load i64, i64* %186, align 8
  %188 = icmp slt i64 %183, %187
  br i1 %188, label %189, label %195

189:                                              ; preds = %176
  %190 = load i32, i32* %4, align 4
  %191 = sext i32 %190 to i64
  %192 = getelementptr inbounds [100 x i64], [100 x i64]* %7, i64 0, i64 %191
  %193 = load i64, i64* %192, align 8
  store i64 %193, i64* %8, align 8
  %194 = load i32, i32* %4, align 4
  store i32 %194, i32* %5, align 4
  br label %195

195:                                              ; preds = %189, %176
  br label %196

196:                                              ; preds = %195
  %197 = load i32, i32* %4, align 4
  %198 = add nsw i32 %197, 1
  store i32 %198, i32* %4, align 4
  br label %171

199:                                              ; preds = %171
  %200 = load i32, i32* %5, align 4
  %201 = sext i32 %200 to i64
  %202 = getelementptr inbounds [100 x %struct.student], [100 x %struct.student]* %2, i64 0, i64 %201
  %203 = getelementptr inbounds %struct.student, %struct.student* %202, i32 0, i32 0
  %204 = getelementptr inbounds [20 x i8], [20 x i8]* %203, i64 0, i64 0
  %205 = load i64, i64* %8, align 8
  %206 = load i64, i64* %6, align 8
  %207 = call i32 (i8*, ...) @printf(i8* getelementptr inbounds ([10 x i8], [10 x i8]* @.str.3, i64 0, i64 0), i8* %204, i64 %205, i64 %206)
  %208 = load i32, i32* %1, align 4
  ret i32 %208
}

declare dso_local i32 @__isoc99_scanf(i8*, ...) #1

declare dso_local i32 @printf(i8*, ...) #1


!llvm.module.flags = !{!0}
!llvm.ident = !{!1}

!0 = !{i32 1, !"wchar_size", i32 4}
!1 = !{!"clang version 10.0.0-4ubuntu1 "}
